target datalayout = "e-m:e-p270:32:32-p271:32:32-p272:64:64-i64:64-i128:128-f80:128-n8:16:32:64-S128"
target triple = "x86_64-pc-linux-gnu"

@.str = private unnamed_addr constant [135 x i8] c"generated/home/dtcxzyw/WorkSpace/Projects/compilers/llvm-opt-benchmark/bench/gromacs/gromacs/src/external/tng_io/src/compression/mtf.c\00", align 1

; Function Attrs: nounwind uwtable
define internal void @comp_conv_to_mtf_byte(ptr noundef %0, i32 noundef %1, ptr noundef %2) #0 {
  %4 = alloca ptr, align 8
  %5 = alloca i32, align 4
  %6 = alloca ptr, align 8
  %7 = alloca i32, align 4
  %8 = alloca [256 x i32], align 16
  %9 = alloca [256 x i32], align 16
  %10 = alloca i32, align 4
  %11 = alloca i32, align 4
  %12 = alloca i32, align 4
  %13 = alloca i32, align 4
  %14 = alloca i32, align 4
  store ptr %0, ptr %4, align 8, !tbaa !10
  store i32 %1, ptr %5, align 4, !tbaa !8
  store ptr %2, ptr %6, align 8, !tbaa !10
  call void @llvm.lifetime.start.p0(i64 4, ptr %7) #5
  call void @llvm.lifetime.start.p0(i64 1024, ptr %8) #5
  call void @llvm.lifetime.start.p0(i64 1024, ptr %9) #5
  call void @llvm.lifetime.start.p0(i64 4, ptr %10) #5
  store i32 0, ptr %7, align 4, !tbaa !8
  br label %15

15:                                               ; preds = %23, %3
  %16 = load i32, ptr %7, align 4, !tbaa !8
  %17 = icmp slt i32 %16, 256
  br i1 %17, label %18, label %26

18:                                               ; preds = %15
  %19 = load i32, ptr %7, align 4, !tbaa !8
  %20 = load i32, ptr %7, align 4, !tbaa !8
  %21 = sext i32 %20 to i64
  %22 = getelementptr inbounds [256 x i32], ptr %9, i64 0, i64 %21
  store i32 %19, ptr %22, align 4, !tbaa !8
  br label %23

23:                                               ; preds = %18
  %24 = load i32, ptr %7, align 4, !tbaa !8
  %25 = add nsw i32 %24, 1
  store i32 %25, ptr %7, align 4, !tbaa !8
  br label %15, !llvm.loop !17

26:                                               ; preds = %15
  store i32 0, ptr %7, align 4, !tbaa !8
  br label %27

27:                                               ; preds = %36, %26
  %28 = load i32, ptr %7, align 4, !tbaa !8
  %29 = icmp slt i32 %28, 255
  br i1 %29, label %30, label %39

30:                                               ; preds = %27
  %31 = load i32, ptr %7, align 4, !tbaa !8
  %32 = add nsw i32 %31, 1
  %33 = load i32, ptr %7, align 4, !tbaa !8
  %34 = sext i32 %33 to i64
  %35 = getelementptr inbounds [256 x i32], ptr %8, i64 0, i64 %34
  store i32 %32, ptr %35, align 4, !tbaa !8
  br label %36

36:                                               ; preds = %30
  %37 = load i32, ptr %7, align 4, !tbaa !8
  %38 = add nsw i32 %37, 1
  store i32 %38, ptr %7, align 4, !tbaa !8
  br label %27, !llvm.loop !18

39:                                               ; preds = %27
  %40 = getelementptr inbounds [256 x i32], ptr %8, i64 0, i64 255
  store i32 -1, ptr %40, align 4, !tbaa !8
  store i32 0, ptr %10, align 4, !tbaa !8
  store i32 0, ptr %7, align 4, !tbaa !8
  br label %41

41:                                               ; preds = %91, %39
  %42 = load i32, ptr %7, align 4, !tbaa !8
  %43 = load i32, ptr %5, align 4, !tbaa !8
  %44 = icmp slt i32 %42, %43
  br i1 %44, label %45, label %94

45:                                               ; preds = %41
  call void @llvm.lifetime.start.p0(i64 4, ptr %11) #5
  %46 = load ptr, ptr %4, align 8, !tbaa !10
  %47 = load i32, ptr %7, align 4, !tbaa !8
  %48 = sext i32 %47 to i64
  %49 = getelementptr inbounds i8, ptr %46, i64 %48
  %50 = load i8, ptr %49, align 1, !tbaa !12
  %51 = zext i8 %50 to i32
  store i32 %51, ptr %11, align 4, !tbaa !8
  call void @llvm.lifetime.start.p0(i64 4, ptr %12) #5
  %52 = load i32, ptr %10, align 4, !tbaa !8
  store i32 %52, ptr %12, align 4, !tbaa !8
  call void @llvm.lifetime.start.p0(i64 4, ptr %13) #5
  store i32 -1, ptr %13, align 4, !tbaa !8
  call void @llvm.lifetime.start.p0(i64 4, ptr %14) #5
  store i32 0, ptr %14, align 4, !tbaa !8
  br label %53

53:                                               ; preds = %60, %45
  %54 = load i32, ptr %12, align 4, !tbaa !8
  %55 = sext i32 %54 to i64
  %56 = getelementptr inbounds [256 x i32], ptr %9, i64 0, i64 %55
  %57 = load i32, ptr %56, align 4, !tbaa !8
  %58 = load i32, ptr %11, align 4, !tbaa !8
  %59 = icmp ne i32 %57, %58
  br i1 %59, label %60, label %68

60:                                               ; preds = %53
  %61 = load i32, ptr %12, align 4, !tbaa !8
  store i32 %61, ptr %13, align 4, !tbaa !8
  %62 = load i32, ptr %12, align 4, !tbaa !8
  %63 = sext i32 %62 to i64
  %64 = getelementptr inbounds [256 x i32], ptr %8, i64 0, i64 %63
  %65 = load i32, ptr %64, align 4, !tbaa !8
  store i32 %65, ptr %12, align 4, !tbaa !8
  %66 = load i32, ptr %14, align 4, !tbaa !8
  %67 = add nsw i32 %66, 1
  store i32 %67, ptr %14, align 4, !tbaa !8
  br label %53, !llvm.loop !19

68:                                               ; preds = %53
  %69 = load i32, ptr %14, align 4, !tbaa !8
  %70 = trunc i32 %69 to i8
  %71 = load ptr, ptr %6, align 8, !tbaa !10
  %72 = load i32, ptr %7, align 4, !tbaa !8
  %73 = sext i32 %72 to i64
  %74 = getelementptr inbounds i8, ptr %71, i64 %73
  store i8 %70, ptr %74, align 1, !tbaa !12
  %75 = load i32, ptr %13, align 4, !tbaa !8
  %76 = icmp ne i32 %75, -1
  br i1 %76, label %77, label %90

77:                                               ; preds = %68
  %78 = load i32, ptr %12, align 4, !tbaa !8
  %79 = sext i32 %78 to i64
  %80 = getelementptr inbounds [256 x i32], ptr %8, i64 0, i64 %79
  %81 = load i32, ptr %80, align 4, !tbaa !8
  %82 = load i32, ptr %13, align 4, !tbaa !8
  %83 = sext i32 %82 to i64
  %84 = getelementptr inbounds [256 x i32], ptr %8, i64 0, i64 %83
  store i32 %81, ptr %84, align 4, !tbaa !8
  %85 = load i32, ptr %10, align 4, !tbaa !8
  %86 = load i32, ptr %12, align 4, !tbaa !8
  %87 = sext i32 %86 to i64
  %88 = getelementptr inbounds [256 x i32], ptr %8, i64 0, i64 %87
  store i32 %85, ptr %88, align 4, !tbaa !8
  %89 = load i32, ptr %12, align 4, !tbaa !8
  store i32 %89, ptr %10, align 4, !tbaa !8
  br label %90

90:                                               ; preds = %77, %68
  call void @llvm.lifetime.end.p0(i64 4, ptr %14) #5
  call void @llvm.lifetime.end.p0(i64 4, ptr %13) #5
  call void @llvm.lifetime.end.p0(i64 4, ptr %12) #5
  call void @llvm.lifetime.end.p0(i64 4, ptr %11) #5
  br label %91

91:                                               ; preds = %90
  %92 = load i32, ptr %7, align 4, !tbaa !8
  %93 = add nsw i32 %92, 1
  store i32 %93, ptr %7, align 4, !tbaa !8
  br label %41, !llvm.loop !20

94:                                               ; preds = %41
  call void @llvm.lifetime.end.p0(i64 4, ptr %10) #5
  call void @llvm.lifetime.end.p0(i64 1024, ptr %9) #5
  call void @llvm.lifetime.end.p0(i64 1024, ptr %8) #5
  call void @llvm.lifetime.end.p0(i64 4, ptr %7) #5
  ret void
}

; Function Attrs: nounwind uwtable
define void @Ptngc_comp_conv_to_mtf_partial(ptr noundef %0, i32 noundef %1, ptr noundef %2) #0 {
  %4 = alloca ptr, align 8
  %5 = alloca i32, align 4
  %6 = alloca ptr, align 8
  %7 = alloca ptr, align 8
  %8 = alloca i32, align 4
  %9 = alloca i32, align 4
  store ptr %0, ptr %4, align 8, !tbaa !3
  store i32 %1, ptr %5, align 4, !tbaa !8
  store ptr %2, ptr %6, align 8, !tbaa !3
  call void @llvm.lifetime.start.p0(i64 8, ptr %7) #5
  %10 = load i32, ptr %5, align 4, !tbaa !8
  %11 = mul nsw i32 %10, 2
  %12 = sext i32 %11 to i64
  %13 = call ptr @Ptngc_warnmalloc_x(i64 noundef %12, ptr noundef @.str, i32 noundef 80)
  store ptr %13, ptr %7, align 8, !tbaa !10
  call void @llvm.lifetime.start.p0(i64 4, ptr %8) #5
  call void @llvm.lifetime.start.p0(i64 4, ptr %9) #5
  %14 = load ptr, ptr %6, align 8, !tbaa !3
  %15 = load i32, ptr %5, align 4, !tbaa !8
  %16 = sext i32 %15 to i64
  %17 = mul i64 4, %16
  call void @llvm.memset.p0.i64(ptr align 4 %14, i8 0, i64 %17, i1 false)
  store i32 0, ptr %9, align 4, !tbaa !8
  br label %18

18:                                               ; preds = %77, %3
  %19 = load i32, ptr %9, align 4, !tbaa !8
  %20 = icmp slt i32 %19, 3
  br i1 %20, label %21, label %80

21:                                               ; preds = %18
  store i32 0, ptr %8, align 4, !tbaa !8
  br label %22

22:                                               ; preds = %41, %21
  %23 = load i32, ptr %8, align 4, !tbaa !8
  %24 = load i32, ptr %5, align 4, !tbaa !8
  %25 = icmp slt i32 %23, %24
  br i1 %25, label %26, label %44

26:                                               ; preds = %22
  %27 = load ptr, ptr %4, align 8, !tbaa !3
  %28 = load i32, ptr %8, align 4, !tbaa !8
  %29 = sext i32 %28 to i64
  %30 = getelementptr inbounds i32, ptr %27, i64 %29
  %31 = load i32, ptr %30, align 4, !tbaa !8
  %32 = load i32, ptr %9, align 4, !tbaa !8
  %33 = mul nsw i32 8, %32
  %34 = lshr i32 %31, %33
  %35 = and i32 %34, 255
  %36 = trunc i32 %35 to i8
  %37 = load ptr, ptr %7, align 8, !tbaa !10
  %38 = load i32, ptr %8, align 4, !tbaa !8
  %39 = sext i32 %38 to i64
  %40 = getelementptr inbounds i8, ptr %37, i64 %39
  store i8 %36, ptr %40, align 1, !tbaa !12
  br label %41

41:                                               ; preds = %26
  %42 = load i32, ptr %8, align 4, !tbaa !8
  %43 = add nsw i32 %42, 1
  store i32 %43, ptr %8, align 4, !tbaa !8
  br label %22, !llvm.loop !13

44:                                               ; preds = %22
  %45 = load ptr, ptr %7, align 8, !tbaa !10
  %46 = load i32, ptr %5, align 4, !tbaa !8
  %47 = load ptr, ptr %7, align 8, !tbaa !10
  %48 = load i32, ptr %5, align 4, !tbaa !8
  %49 = sext i32 %48 to i64
  %50 = getelementptr inbounds i8, ptr %47, i64 %49
  call void @comp_conv_to_mtf_byte(ptr noundef %45, i32 noundef %46, ptr noundef %50)
  store i32 0, ptr %8, align 4, !tbaa !8
  br label %51

51:                                               ; preds = %73, %44
  %52 = load i32, ptr %8, align 4, !tbaa !8
  %53 = load i32, ptr %5, align 4, !tbaa !8
  %54 = icmp slt i32 %52, %53
  br i1 %54, label %55, label %76

55:                                               ; preds = %51
  %56 = load ptr, ptr %7, align 8, !tbaa !10
  %57 = load i32, ptr %5, align 4, !tbaa !8
  %58 = load i32, ptr %8, align 4, !tbaa !8
  %59 = add nsw i32 %57, %58
  %60 = sext i32 %59 to i64
  %61 = getelementptr inbounds i8, ptr %56, i64 %60
  %62 = load i8, ptr %61, align 1, !tbaa !12
  %63 = zext i8 %62 to i32
  %64 = load i32, ptr %9, align 4, !tbaa !8
  %65 = mul nsw i32 8, %64
  %66 = shl i32 %63, %65
  %67 = load ptr, ptr %6, align 8, !tbaa !3
  %68 = load i32, ptr %8, align 4, !tbaa !8
  %69 = sext i32 %68 to i64
  %70 = getelementptr inbounds i32, ptr %67, i64 %69
  %71 = load i32, ptr %70, align 4, !tbaa !8
  %72 = or i32 %71, %66
  store i32 %72, ptr %70, align 4, !tbaa !8
  br label %73

73:                                               ; preds = %55
  %74 = load i32, ptr %8, align 4, !tbaa !8
  %75 = add nsw i32 %74, 1
  store i32 %75, ptr %8, align 4, !tbaa !8
  br label %51, !llvm.loop !15

76:                                               ; preds = %51
  br label %77

77:                                               ; preds = %76
  %78 = load i32, ptr %9, align 4, !tbaa !8
  %79 = add nsw i32 %78, 1
  store i32 %79, ptr %9, align 4, !tbaa !8
  br label %18, !llvm.loop !16

80:                                               ; preds = %18
  %81 = load ptr, ptr %7, align 8, !tbaa !10
  call void @free(ptr noundef %81) #5
  call void @llvm.lifetime.end.p0(i64 4, ptr %9) #5
  call void @llvm.lifetime.end.p0(i64 4, ptr %8) #5
  call void @llvm.lifetime.end.p0(i64 8, ptr %7) #5
  ret void
}