; Function Attrs: nounwind uwtable
define void @Ptngc_comp_conv_to_mtf_partial(ptr noundef readonly captures(none) %0, i32 noundef %1, ptr noundef captures(none) %2) local_unnamed_addr #0 {
  %4 = alloca [256 x i32], align 16
  %5 = alloca [256 x i32], align 16
  %6 = shl nsw i32 %1, 1
  %7 = sext i32 %6 to i64
  %8 = tail call ptr @Ptngc_warnmalloc_x(i64 noundef %7, ptr noundef nonnull @.str, i32 noundef 80) #5
  %9 = sext i32 %1 to i64
  %10 = shl nsw i64 %9, 2
  tail call void @llvm.memset.p0.i64(ptr align 4 %2, i8 0, i64 %10, i1 false)
  %11 = icmp sgt i32 %1, 0
  %12 = getelementptr inbounds i8, ptr %8, i64 %9
  %13 = getelementptr inbounds nuw i8, ptr %4, i64 1020
  %wide.trip.count.i = zext i32 %1 to i64
  br i1 %11, label %.preheader.us.preheader, label %.preheader

.preheader.us.preheader:                          ; preds = %3
  %invariant.gep = getelementptr inbounds nuw i8, ptr %8, i64 %wide.trip.count.i
  br label %.lr.ph.us

._crit_edge.us:                                   ; preds = %48
  call void @llvm.lifetime.start.p0(i64 1024, ptr nonnull %4) #5
  call void @llvm.lifetime.start.p0(i64 1024, ptr nonnull %5) #5
  br label %14

14:                                               ; preds = %14, %._crit_edge.us
  %indvars.iv.i.us = phi i64 [ 0, %._crit_edge.us ], [ %indvars.iv.next.i.us, %14 ]
  %15 = getelementptr inbounds nuw [256 x i32], ptr %5, i64 0, i64 %indvars.iv.i.us
  %16 = trunc nuw nsw i64 %indvars.iv.i.us to i32
  store i32 %16, ptr %15, align 4, !tbaa !3
  %indvars.iv.next.i.us = add nuw nsw i64 %indvars.iv.i.us, 1
  %exitcond.not.i.us = icmp eq i64 %indvars.iv.next.i.us, 256
  br i1 %exitcond.not.i.us, label %.preheader.i.us, label %14, !llvm.loop !7

.preheader.i.us:                                  ; preds = %14, %.preheader.i.us
  %indvars.iv50.i.us = phi i64 [ %indvars.iv.next51.i.us, %.preheader.i.us ], [ 0, %14 ]
  %indvars.iv.next51.i.us = add nuw nsw i64 %indvars.iv50.i.us, 1
  %17 = getelementptr inbounds nuw [256 x i32], ptr %4, i64 0, i64 %indvars.iv50.i.us
  %18 = trunc nuw nsw i64 %indvars.iv.next51.i.us to i32
  store i32 %18, ptr %17, align 4, !tbaa !3
  %exitcond53.not.i.us = icmp eq i64 %indvars.iv.next51.i.us, 255
  br i1 %exitcond53.not.i.us, label %.lr.ph44.preheader.i.us, label %.preheader.i.us, !llvm.loop !9

.lr.ph44.preheader.i.us:                          ; preds = %.preheader.i.us
  store i32 -1, ptr %13, align 4, !tbaa !3
  br label %.lr.ph44.i.us

.lr.ph44.i.us:                                    ; preds = %39, %.lr.ph44.preheader.i.us
  %indvars.iv54.i.us = phi i64 [ 0, %.lr.ph44.preheader.i.us ], [ %indvars.iv.next55.i.us, %39 ]
  %.03041.i.us = phi i32 [ 0, %.lr.ph44.preheader.i.us ], [ %.131.i.us, %39 ]
  %19 = getelementptr inbounds nuw i8, ptr %8, i64 %indvars.iv54.i.us
  %20 = load i8, ptr %19, align 1, !tbaa !10
  %21 = zext i8 %20 to i32
  %22 = sext i32 %.03041.i.us to i64
  %23 = getelementptr inbounds [256 x i32], ptr %5, i64 0, i64 %22
  %24 = load i32, ptr %23, align 4, !tbaa !3
  %.not35.i.us = icmp eq i32 %24, %21
  br i1 %.not35.i.us, label %._crit_edge.thread.i.us, label %.lr.ph.i.us

.lr.ph.i.us:                                      ; preds = %.lr.ph44.i.us, %.lr.ph.i.us
  %25 = phi i64 [ %29, %.lr.ph.i.us ], [ %22, %.lr.ph44.i.us ]
  %.037.i.us = phi i8 [ %28, %.lr.ph.i.us ], [ 0, %.lr.ph44.i.us ]
  %.02836.i.us = phi i32 [ %27, %.lr.ph.i.us ], [ %.03041.i.us, %.lr.ph44.i.us ]
  %26 = getelementptr inbounds [256 x i32], ptr %4, i64 0, i64 %25
  %27 = load i32, ptr %26, align 4, !tbaa !3
  %28 = add i8 %.037.i.us, 1
  %29 = sext i32 %27 to i64
  %30 = getelementptr inbounds [256 x i32], ptr %5, i64 0, i64 %29
  %31 = load i32, ptr %30, align 4, !tbaa !3
  %.not.i.us = icmp eq i32 %31, %21
  br i1 %.not.i.us, label %._crit_edge.i.us, label %.lr.ph.i.us, !llvm.loop !11

._crit_edge.i.us:                                 ; preds = %.lr.ph.i.us
  %32 = getelementptr inbounds nuw i8, ptr %12, i64 %indvars.iv54.i.us
  store i8 %28, ptr %32, align 1, !tbaa !10
  %.not32.i.us = icmp eq i32 %.02836.i.us, -1
  br i1 %.not32.i.us, label %39, label %33

33:                                               ; preds = %._crit_edge.i.us
  %34 = getelementptr inbounds [256 x i32], ptr %4, i64 0, i64 %29
  %35 = load i32, ptr %34, align 4, !tbaa !3
  %36 = sext i32 %.02836.i.us to i64
  %37 = getelementptr inbounds [256 x i32], ptr %4, i64 0, i64 %36
  store i32 %35, ptr %37, align 4, !tbaa !3
  store i32 %.03041.i.us, ptr %34, align 4, !tbaa !3
  br label %39

._crit_edge.thread.i.us:                          ; preds = %.lr.ph44.i.us
  %38 = getelementptr inbounds nuw i8, ptr %12, i64 %indvars.iv54.i.us
  store i8 0, ptr %38, align 1, !tbaa !10
  br label %39

39:                                               ; preds = %._crit_edge.thread.i.us, %33, %._crit_edge.i.us
  %.131.i.us = phi i32 [ %27, %33 ], [ %.03041.i.us, %._crit_edge.i.us ], [ %.03041.i.us, %._crit_edge.thread.i.us ]
  %indvars.iv.next55.i.us = add nuw nsw i64 %indvars.iv54.i.us, 1
  %exitcond57.not.i.us = icmp eq i64 %indvars.iv.next55.i.us, %wide.trip.count.i
  br i1 %exitcond57.not.i.us, label %.lr.ph32.us, label %.lr.ph44.i.us, !llvm.loop !12

._crit_edge33.us:                                 ; preds = %41
  %40 = add nuw nsw i32 %.034.us, 1
  %exitcond78.not = icmp eq i32 %40, 3
  br i1 %exitcond78.not, label %.split36.us, label %.lr.ph.us, !llvm.loop !13

41:                                               ; preds = %.lr.ph32.us, %41
  %indvars.iv73 = phi i64 [ 0, %.lr.ph32.us ], [ %indvars.iv.next74, %41 ]
  %gep = getelementptr inbounds nuw i8, ptr %invariant.gep, i64 %indvars.iv73
  %42 = load i8, ptr %gep, align 1, !tbaa !10
  %43 = zext i8 %42 to i32
  %44 = shl nuw nsw i32 %43, %55
  %45 = getelementptr inbounds nuw i32, ptr %2, i64 %indvars.iv73
  %46 = load i32, ptr %45, align 4, !tbaa !3
  %47 = or i32 %44, %46
  store i32 %47, ptr %45, align 4, !tbaa !3
  %indvars.iv.next74 = add nuw nsw i64 %indvars.iv73, 1
  %exitcond77.not = icmp eq i64 %indvars.iv.next74, %wide.trip.count.i
  br i1 %exitcond77.not, label %._crit_edge33.us, label %41, !llvm.loop !14

48:                                               ; preds = %.lr.ph.us, %48
  %indvars.iv = phi i64 [ 0, %.lr.ph.us ], [ %indvars.iv.next, %48 ]
  %49 = getelementptr inbounds nuw i32, ptr %0, i64 %indvars.iv
  %50 = load i32, ptr %49, align 4, !tbaa !3
  %51 = lshr i32 %50, %54
  %52 = trunc i32 %51 to i8
  %53 = getelementptr inbounds nuw i8, ptr %8, i64 %indvars.iv
  store i8 %52, ptr %53, align 1, !tbaa !10
  %indvars.iv.next = add nuw nsw i64 %indvars.iv, 1
  %exitcond72.not = icmp eq i64 %indvars.iv.next, %wide.trip.count.i
  br i1 %exitcond72.not, label %._crit_edge.us, label %48, !llvm.loop !15

.lr.ph.us:                                        ; preds = %._crit_edge33.us, %.preheader.us.preheader
  %.034.us = phi i32 [ %40, %._crit_edge33.us ], [ 0, %.preheader.us.preheader ]
  %54 = shl nuw nsw i32 %.034.us, 3
  br label %48

.lr.ph32.us:                                      ; preds = %39
  call void @llvm.lifetime.end.p0(i64 1024, ptr nonnull %5) #5
  call void @llvm.lifetime.end.p0(i64 1024, ptr nonnull %4) #5
  %55 = shl nuw nsw i32 %.034.us, 3
  br label %41

.preheader:                                       ; preds = %3, %comp_conv_to_mtf_byte.exit
  %.034 = phi i32 [ %61, %comp_conv_to_mtf_byte.exit ], [ 0, %3 ]
  call void @llvm.lifetime.start.p0(i64 1024, ptr nonnull %4) #5
  call void @llvm.lifetime.start.p0(i64 1024, ptr nonnull %5) #5
  br label %56

56:                                               ; preds = %56, %.preheader
  %indvars.iv.i = phi i64 [ 0, %.preheader ], [ %indvars.iv.next.i, %56 ]
  %57 = getelementptr inbounds nuw [256 x i32], ptr %5, i64 0, i64 %indvars.iv.i
  %58 = trunc nuw nsw i64 %indvars.iv.i to i32
  store i32 %58, ptr %57, align 4, !tbaa !3
  %indvars.iv.next.i = add nuw nsw i64 %indvars.iv.i, 1
  %exitcond.not.i = icmp eq i64 %indvars.iv.next.i, 256
  br i1 %exitcond.not.i, label %.preheader.i, label %56, !llvm.loop !7

.preheader.i:                                     ; preds = %56, %.preheader.i
  %indvars.iv50.i = phi i64 [ %indvars.iv.next51.i, %.preheader.i ], [ 0, %56 ]
  %indvars.iv.next51.i = add nuw nsw i64 %indvars.iv50.i, 1
  %59 = getelementptr inbounds nuw [256 x i32], ptr %4, i64 0, i64 %indvars.iv50.i
  %60 = trunc nuw nsw i64 %indvars.iv.next51.i to i32
  store i32 %60, ptr %59, align 4, !tbaa !3
  %exitcond53.not.i = icmp eq i64 %indvars.iv.next51.i, 255
  br i1 %exitcond53.not.i, label %comp_conv_to_mtf_byte.exit, label %.preheader.i, !llvm.loop !9

comp_conv_to_mtf_byte.exit:                       ; preds = %.preheader.i
  call void @llvm.lifetime.end.p0(i64 1024, ptr nonnull %5) #5
  call void @llvm.lifetime.end.p0(i64 1024, ptr nonnull %4) #5
  %61 = add nuw nsw i32 %.034, 1
  %exitcond.not = icmp eq i32 %61, 3
  br i1 %exitcond.not, label %.split36.us, label %.preheader, !llvm.loop !13

.split36.us:                                      ; preds = %comp_conv_to_mtf_byte.exit, %._crit_edge33.us
  tail call void @free(ptr noundef %8) #5
  ret void
}